target datalayout = "e-m:e-p270:32:32-p271:32:32-p272:64:64-i64:64-i128:128-f80:128-n8:16:32:64-S128"
target triple = "x86_64-pc-linux-gnu"

%struct.lxb_html_tree = type { ptr, ptr, ptr, ptr, ptr, ptr, ptr, %struct.lxb_html_tree_pending_table_t, ptr, i8, i8, i8, i8, i8, i8, ptr, ptr, ptr, i32, i64 }
%struct.lxb_html_tree_pending_table_t = type { ptr, i8 }
%struct.lexbor_array_t = type { ptr, i64, i64 }
%struct.lxb_dom_node = type { %struct.lxb_dom_event_target, i64, i64, i64, ptr, ptr, ptr, ptr, ptr, ptr, ptr, i32, i64 }
%struct.lxb_dom_event_target = type { ptr }

; Function Attrs: inlinehint nounwind uwtable
define internal ptr @lxb_html_tree_insert_html_element(ptr noundef %0, ptr noundef %1) #3 {
  %3 = alloca ptr, align 8
  %4 = alloca ptr, align 8
  store ptr %0, ptr %3, align 8, !tbaa !4
  store ptr %1, ptr %4, align 8, !tbaa !9
  %5 = load ptr, ptr %3, align 8, !tbaa !4
  %6 = load ptr, ptr %4, align 8, !tbaa !9
  %7 = call ptr @lxb_html_tree_insert_foreign_element(ptr noundef %5, ptr noundef %6, i64 noundef 2)
  ret ptr %7
}

; Function Attrs: inlinehint nounwind uwtable
define internal zeroext i1 @lxb_html_tree_node_is(ptr noundef %0, i64 noundef %1) #3 {
  %3 = alloca ptr, align 8
  %4 = alloca i64, align 8
  store ptr %0, ptr %3, align 8, !tbaa !37
  store i64 %1, ptr %4, align 8, !tbaa !50
  %5 = load ptr, ptr %3, align 8, !tbaa !37
  %6 = getelementptr inbounds nuw %struct.lxb_dom_node, ptr %5, i32 0, i32 1
  %7 = load i64, ptr %6, align 8, !tbaa !51
  %8 = load i64, ptr %4, align 8, !tbaa !50
  %9 = icmp eq i64 %7, %8
  br i1 %9, label %10, label %15

10:                                               ; preds = %2
  %11 = load ptr, ptr %3, align 8, !tbaa !37
  %12 = getelementptr inbounds nuw %struct.lxb_dom_node, ptr %11, i32 0, i32 3
  %13 = load i64, ptr %12, align 8, !tbaa !55
  %14 = icmp eq i64 %13, 2
  br label %15

15:                                               ; preds = %10, %2
  %16 = phi i1 [ false, %2 ], [ %14, %10 ]
  ret i1 %16
}

; Function Attrs: inlinehint nounwind uwtable
define internal ptr @lxb_html_tree_current_node(ptr noundef %0) #3 {
  %2 = alloca ptr, align 8
  %3 = alloca ptr, align 8
  store ptr %0, ptr %3, align 8, !tbaa !4
  %4 = load ptr, ptr %3, align 8, !tbaa !4
  %5 = getelementptr inbounds nuw %struct.lxb_html_tree, ptr %4, i32 0, i32 4
  %6 = load ptr, ptr %5, align 8, !tbaa !44
  %7 = getelementptr inbounds nuw %struct.lexbor_array_t, ptr %6, i32 0, i32 2
  %8 = load i64, ptr %7, align 8, !tbaa !49
  %9 = icmp eq i64 %8, 0
  br i1 %9, label %10, label %11

10:                                               ; preds = %1
  store ptr null, ptr %2, align 8
  br label %25

11:                                               ; preds = %1
  %12 = load ptr, ptr %3, align 8, !tbaa !4
  %13 = getelementptr inbounds nuw %struct.lxb_html_tree, ptr %12, i32 0, i32 4
  %14 = load ptr, ptr %13, align 8, !tbaa !44
  %15 = getelementptr inbounds nuw %struct.lexbor_array_t, ptr %14, i32 0, i32 0
  %16 = load ptr, ptr %15, align 8, !tbaa !45
  %17 = load ptr, ptr %3, align 8, !tbaa !4
  %18 = getelementptr inbounds nuw %struct.lxb_html_tree, ptr %17, i32 0, i32 4
  %19 = load ptr, ptr %18, align 8, !tbaa !44
  %20 = getelementptr inbounds nuw %struct.lexbor_array_t, ptr %19, i32 0, i32 2
  %21 = load i64, ptr %20, align 8, !tbaa !49
  %22 = sub i64 %21, 1
  %23 = getelementptr inbounds nuw ptr, ptr %16, i64 %22
  %24 = load ptr, ptr %23, align 8, !tbaa !9
  store ptr %24, ptr %2, align 8
  br label %25

25:                                               ; preds = %11, %10
  %26 = load ptr, ptr %2, align 8
  ret ptr %26
}

; Function Attrs: inlinehint nounwind uwtable
define internal zeroext i1 @lxb_html_tree_insertion_mode_in_body_rprt(ptr noundef %0, ptr noundef %1) #3 {
  %3 = alloca i1, align 1
  %4 = alloca ptr, align 8
  %5 = alloca ptr, align 8
  %6 = alloca ptr, align 8
  %7 = alloca ptr, align 8
  %8 = alloca i32, align 4
  store ptr %0, ptr %4, align 8, !tbaa !4
  store ptr %1, ptr %5, align 8, !tbaa !9
  call void @llvm.lifetime.start.p0(i64 8, ptr %6) #5
  call void @llvm.lifetime.start.p0(i64 8, ptr %7) #5
  %9 = load ptr, ptr %4, align 8, !tbaa !4
  %10 = call ptr @lxb_html_tree_element_in_scope(ptr noundef %9, i64 noundef 158, i64 noundef 2, i32 noundef 8)
  store ptr %10, ptr %6, align 8, !tbaa !37
  %11 = load ptr, ptr %6, align 8, !tbaa !37
  %12 = icmp ne ptr %11, null
  br i1 %12, label %13, label %15

13:                                               ; preds = %2
  %14 = load ptr, ptr %4, align 8, !tbaa !4
  call void @lxb_html_tree_generate_implied_end_tags(ptr noundef %14, i64 noundef 157, i64 noundef 2)
  br label %15

15:                                               ; preds = %13, %2
  %16 = load ptr, ptr %4, align 8, !tbaa !4
  %17 = call ptr @lxb_html_tree_current_node(ptr noundef %16)
  store ptr %17, ptr %6, align 8, !tbaa !37
  %18 = load ptr, ptr %6, align 8, !tbaa !37
  %19 = call zeroext i1 @lxb_html_tree_node_is(ptr noundef %18, i64 noundef 157)
  %20 = zext i1 %19 to i32
  %21 = icmp eq i32 %20, 0
  br i1 %21, label %27, label %22

22:                                               ; preds = %15
  %23 = load ptr, ptr %6, align 8, !tbaa !37
  %24 = call zeroext i1 @lxb_html_tree_node_is(ptr noundef %23, i64 noundef 158)
  %25 = zext i1 %24 to i32
  %26 = icmp eq i32 %25, 0
  br i1 %26, label %27, label %30

27:                                               ; preds = %22, %15
  %28 = load ptr, ptr %4, align 8, !tbaa !4
  %29 = load ptr, ptr %5, align 8, !tbaa !9
  call void @lxb_html_tree_parse_error(ptr noundef %28, ptr noundef %29, i32 noundef 23)
  br label %30

30:                                               ; preds = %27, %22
  %31 = load ptr, ptr %4, align 8, !tbaa !4
  %32 = load ptr, ptr %5, align 8, !tbaa !9
  %33 = call ptr @lxb_html_tree_insert_html_element(ptr noundef %31, ptr noundef %32)
  store ptr %33, ptr %7, align 8, !tbaa !40
  %34 = load ptr, ptr %7, align 8, !tbaa !40
  %35 = icmp eq ptr %34, null
  br i1 %35, label %36, label %41

36:                                               ; preds = %30
  %37 = load ptr, ptr %4, align 8, !tbaa !4
  %38 = getelementptr inbounds nuw %struct.lxb_html_tree, ptr %37, i32 0, i32 18
  store i32 2, ptr %38, align 8, !tbaa !25
  %39 = load ptr, ptr %4, align 8, !tbaa !4
  %40 = call zeroext i1 @lxb_html_tree_process_abort(ptr noundef %39)
  store i1 %40, ptr %3, align 1
  store i32 1, ptr %8, align 4
  br label %42

41:                                               ; preds = %30
  store i1 true, ptr %3, align 1
  store i32 1, ptr %8, align 4
  br label %42

42:                                               ; preds = %41, %36
  call void @llvm.lifetime.end.p0(i64 8, ptr %7) #5
  call void @llvm.lifetime.end.p0(i64 8, ptr %6) #5
  %43 = load i1, ptr %3, align 1
  ret i1 %43
}