; Function Attrs: inlinehint nounwind uwtable
define internal fastcc zeroext i1 @lxb_html_tree_insertion_mode_in_body_rprt(ptr noundef %0, ptr noundef %1) unnamed_addr #3 {
  %3 = tail call ptr @lxb_html_tree_element_in_scope(ptr noundef %0, i64 noundef 158, i64 noundef 2, i32 noundef 8) #6
  %.not = icmp eq ptr %3, null
  br i1 %.not, label %lxb_html_tree_current_node.exit, label %4

4:                                                ; preds = %2
  tail call void @lxb_html_tree_generate_implied_end_tags(ptr noundef %0, i64 noundef 157, i64 noundef 2) #6
  br label %lxb_html_tree_current_node.exit

lxb_html_tree_current_node.exit:                  ; preds = %4, %2
  %5 = getelementptr i8, ptr %0, i64 32
  %.val = load ptr, ptr %5, align 8, !tbaa !33
  %6 = getelementptr inbounds nuw i8, ptr %.val, i64 16
  %7 = load i64, ptr %6, align 8, !tbaa !34
  %8 = icmp ne i64 %7, 0
  tail call void @llvm.assume(i1 %8)
  tail call void @lxb_html_tree_parse_error(ptr noundef nonnull %0, ptr noundef %1, i32 noundef 23) #6
  %9 = tail call ptr @lxb_html_tree_insert_foreign_element(ptr noundef nonnull %0, ptr noundef %1, i64 noundef 2) #6
  %10 = icmp eq ptr %9, null
  br i1 %10, label %11, label %14

11:                                               ; preds = %lxb_html_tree_current_node.exit
  %12 = getelementptr inbounds nuw i8, ptr %0, i64 112
  store i32 2, ptr %12, align 8, !tbaa !22
  %13 = tail call zeroext i1 @lxb_html_tree_process_abort(ptr noundef nonnull %0) #6
  br label %14

14:                                               ; preds = %lxb_html_tree_current_node.exit, %11
  %.0 = phi i1 [ %13, %11 ], [ true, %lxb_html_tree_current_node.exit ]
  ret i1 %.0
}